; ModuleID = '21/721.c'
source_filename = "21/721.c"
target datalayout = "e-m:e-p270:32:32-p271:32:32-p272:64:64-i64:64-f80:128-n8:16:32:64-S128"
target triple = "x86_64-pc-linux-gnu"

@.str = private unnamed_addr constant [3 x i8] c"%d\00", align 1
@.str.1 = private unnamed_addr constant [4 x i8] c",%d\00", align 1
@.str.2 = private unnamed_addr constant [2 x i8] c"\0A\00", align 1

; Function Attrs: noinline nounwind uwtable
define dso_local i32 @main() #0 {
  %1 = alloca i32, align 4
  %2 = alloca [300 x i32], align 16
  %3 = alloca [300 x double], align 16
  %4 = alloca i32, align 4
  %5 = alloca i32, align 4
  %6 = alloca i32, align 4
  %7 = alloca double, align 8
  %8 = alloca double, align 8
  %9 = alloca double, align 8
  store i32 0, i32* %1, align 4
  store double 0.000000e+00, double* %7, align 8
  store double 0.000000e+00, double* %8, align 8
  %10 = call i32 (i8*, ...) @__isoc99_scanf(i8* getelementptr inbounds ([3 x i8], [3 x i8]* @.str, i64 0, i64 0), i32* %4)
  store i32 0, i32* %5, align 4
  br label %11

11:                                               ; preds = %28, %0
  %12 = load i32, i32* %5, align 4
  %13 = load i32, i32* %4, align 4
  %14 = sub nsw i32 %13, 1
  %15 = icmp sle i32 %12, %14
  br i1 %15, label %16, label %31

16:                                               ; preds = %11
  %17 = load i32, i32* %5, align 4
  %18 = sext i32 %17 to i64
  %19 = getelementptr inbounds [300 x i32], [300 x i32]* %2, i64 0, i64 %18
  %20 = call i32 (i8*, ...) @__isoc99_scanf(i8* getelementptr inbounds ([3 x i8], [3 x i8]* @.str, i64 0, i64 0), i32* %19)
  %21 = load double, double* %7, align 8
  %22 = load i32, i32* %5, align 4
  %23 = sext i32 %22 to i64
  %24 = getelementptr inbounds [300 x i32], [300 x i32]* %2, i64 0, i64 %23
  %25 = load i32, i32* %24, align 4
  %26 = sitofp i32 %25 to double
  %27 = fadd double %21, %26
  store double %27, double* %7, align 8
  br label %28

28:                                               ; preds = %16
  %29 = load i32, i32* %5, align 4
  %30 = add nsw i32 %29, 1
  store i32 %30, i32* %5, align 4
  br label %11

31:                                               ; preds = %11
  %32 = load double, double* %7, align 8
  %33 = load i32, i32* %4, align 4
  %34 = sitofp i32 %33 to double
  %35 = fdiv double %32, %34
  store double %35, double* %9, align 8
  store i32 0, i32* %5, align 4
  br label %36

36:                                               ; preds = %73, %31
  %37 = load i32, i32* %5, align 4
  %38 = load i32, i32* %4, align 4
  %39 = sub nsw i32 %38, 1
  %40 = icmp sle i32 %37, %39
  br i1 %40, label %41, label %76

41:                                               ; preds = %36
  %42 = load double, double* %9, align 8
  %43 = load i32, i32* %5, align 4
  %44 = sext i32 %43 to i64
  %45 = getelementptr inbounds [300 x i32], [300 x i32]* %2, i64 0, i64 %44
  %46 = load i32, i32* %45, align 4
  %47 = sitofp i32 %46 to double
  %48 = fsub double %42, %47
  %49 = fcmp oge double %48, 0.000000e+00
  br i1 %49, label %50, label %61

50:                                               ; preds = %41
  %51 = load double, double* %9, align 8
  %52 = load i32, i32* %5, align 4
  %53 = sext i32 %52 to i64
  %54 = getelementptr inbounds [300 x i32], [300 x i32]* %2, i64 0, i64 %53
  %55 = load i32, i32* %54, align 4
  %56 = sitofp i32 %55 to double
  %57 = fsub double %51, %56
  %58 = load i32, i32* %5, align 4
  %59 = sext i32 %58 to i64
  %60 = getelementptr inbounds [300 x double], [300 x double]* %3, i64 0, i64 %59
  store double %57, double* %60, align 8
  br label %72

61:                                               ; preds = %41
  %62 = load i32, i32* %5, align 4
  %63 = sext i32 %62 to i64
  %64 = getelementptr inbounds [300 x i32], [300 x i32]* %2, i64 0, i64 %63
  %65 = load i32, i32* %64, align 4
  %66 = sitofp i32 %65 to double
  %67 = load double, double* %9, align 8
  %68 = fsub double %66, %67
  %69 = load i32, i32* %5, align 4
  %70 = sext i32 %69 to i64
  %71 = getelementptr inbounds [300 x double], [300 x double]* %3, i64 0, i64 %70
  store double %68, double* %71, align 8
  br label %72

72:                                               ; preds = %61, %50
  br label %73

73:                                               ; preds = %72
  %74 = load i32, i32* %5, align 4
  %75 = add nsw i32 %74, 1
  store i32 %75, i32* %5, align 4
  br label %36

76:                                               ; preds = %36
  store i32 0, i32* %5, align 4
  br label %77

77:                                               ; preds = %95, %76
  %78 = load i32, i32* %5, align 4
  %79 = load i32, i32* %4, align 4
  %80 = sub nsw i32 %79, 1
  %81 = icmp sle i32 %78, %80
  br i1 %81, label %82, label %98

82:                                               ; preds = %77
  %83 = load i32, i32* %5, align 4
  %84 = sext i32 %83 to i64
  %85 = getelementptr inbounds [300 x double], [300 x double]* %3, i64 0, i64 %84
  %86 = load double, double* %85, align 8
  %87 = load double, double* %8, align 8
  %88 = fcmp ogt double %86, %87
  br i1 %88, label %89, label %94

89:                                               ; preds = %82
  %90 = load i32, i32* %5, align 4
  %91 = sext i32 %90 to i64
  %92 = getelementptr inbounds [300 x double], [300 x double]* %3, i64 0, i64 %91
  %93 = load double, double* %92, align 8
  store double %93, double* %8, align 8
  br label %94

94:                                               ; preds = %89, %82
  br label %95

95:                                               ; preds = %94
  %96 = load i32, i32* %5, align 4
  %97 = add nsw i32 %96, 1
  store i32 %97, i32* %5, align 4
  br label %77

98:                                               ; preds = %77
  store i32 0, i32* %5, align 4
  store i32 0, i32* %6, align 4
  br label %99

99:                                               ; preds = %130, %98
  %100 = load i32, i32* %5, align 4
  %101 = load i32, i32* %4, align 4
  %102 = sub nsw i32 %101, 1
  %103 = icmp sle i32 %100, %102
  br i1 %103, label %104, label %133

104:                                              ; preds = %99
  %105 = load i32, i32* %5, align 4
  %106 = sext i32 %105 to i64
  %107 = getelementptr inbounds [300 x double], [300 x double]* %3, i64 0, i64 %106
  %108 = load double, double* %107, align 8
  %109 = load double, double* %8, align 8
  %110 = fcmp oeq double %108, %109
  br i1 %110, label %111, label %129

111:                                              ; preds = %104
  %112 = load i32, i32* %6, align 4
  %113 = add nsw i32 %112, 1
  store i32 %113, i32* %6, align 4
  %114 = load i32, i32* %6, align 4
  %115 = icmp eq i32 %114, 1
  br i1 %115, label %116, label %122

116:                                              ; preds = %111
  %117 = load i32, i32* %5, align 4
  %118 = sext i32 %117 to i64
  %119 = getelementptr inbounds [300 x i32], [300 x i32]* %2, i64 0, i64 %118
  %120 = load i32, i32* %119, align 4
  %121 = call i32 (i8*, ...) @printf(i8* getelementptr inbounds ([3 x i8], [3 x i8]* @.str, i64 0, i64 0), i32 %120)
  br label %128

122:                                              ; preds = %111
  %123 = load i32, i32* %5, align 4
  %124 = sext i32 %123 to i64
  %125 = getelementptr inbounds [300 x i32], [300 x i32]* %2, i64 0, i64 %124
  %126 = load i32, i32* %125, align 4
  %127 = call i32 (i8*, ...) @printf(i8* getelementptr inbounds ([4 x i8], [4 x i8]* @.str.1, i64 0, i64 0), i32 %126)
  br label %128

128:                                              ; preds = %122, %116
  br label %129

129:                                              ; preds = %128, %104
  br label %130

130:                                              ; preds = %129
  %131 = load i32, i32* %5, align 4
  %132 = add nsw i32 %131, 1
  store i32 %132, i32* %5, align 4
  br label %99

133:                                              ; preds = %99
  %134 = call i32 (i8*, ...) @printf(i8* getelementptr inbounds ([2 x i8], [2 x i8]* @.str.2, i64 0, i64 0))
  ret i32 0
}

declare dso_local i32 @__isoc99_scanf(i8*, ...) #1

declare dso_local i32 @printf(i8*, ...) #1


!llvm.module.flags = !{!0}
!llvm.ident = !{!1}

!0 = !{i32 1, !"wchar_size", i32 4}
!1 = !{!"clang version 10.0.0-4ubuntu1 "}
